target datalayout = "e-m:e-p270:32:32-p271:32:32-p272:64:64-i64:64-i128:128-f80:128-n8:16:32:64-S128"
target triple = "x86_64-pc-linux-gnu"

; Function Attrs: nounwind uwtable
define hidden ptr @phpdbg_get_property_key(ptr noundef %0) #0 {
  %2 = alloca ptr, align 8
  %3 = alloca ptr, align 8
  store ptr %0, ptr %3, align 8
  %4 = load ptr, ptr %3, align 8
  %5 = load i8, ptr %4, align 1
  %6 = sext i8 %5 to i32
  %7 = icmp ne i32 %6, 0
  br i1 %7, label %8, label %10

8:                                                ; preds = %1
  %9 = load ptr, ptr %3, align 8
  store ptr %9, ptr %2, align 8
  br label %15

10:                                               ; preds = %1
  %11 = load ptr, ptr %3, align 8
  %12 = getelementptr inbounds i8, ptr %11, i64 1
  %13 = call ptr @strchr(ptr noundef %12, i32 noundef 0) #12
  %14 = getelementptr inbounds i8, ptr %13, i64 1
  store ptr %14, ptr %2, align 8
  br label %15

15:                                               ; preds = %10, %8
  %16 = load ptr, ptr %2, align 8
  ret ptr %16
}