; Function Attrs: mustprogress nofree nounwind willreturn memory(argmem: read) uwtable
define hidden ptr @phpdbg_get_property_key(ptr noundef readonly %0) local_unnamed_addr #2 {
  %2 = load i8, ptr %0, align 1
  %.not = icmp eq i8 %2, 0
  br i1 %.not, label %3, label %6

3:                                                ; preds = %1
  %4 = getelementptr inbounds i8, ptr %0, i64 1
  %strlen = tail call i64 @strlen(ptr nonnull dereferenceable(1) %4)
  %strchr = getelementptr inbounds i8, ptr %4, i64 %strlen
  %5 = getelementptr inbounds i8, ptr %strchr, i64 1
  br label %6

6:                                                ; preds = %1, %3
  %.0 = phi ptr [ %5, %3 ], [ %0, %1 ]
  ret ptr %.0
}